target datalayout = "e-m:e-p270:32:32-p271:32:32-p272:64:64-i64:64-i128:128-f80:128-n8:16:32:64-S128"
target triple = "x86_64-pc-linux-gnu"

%struct.strbuf = type { i64, i64, ptr }
%struct.hashmap = type { ptr, ptr, ptr, i32, i32, i32, i32, i8 }
%struct.repository = type { ptr, ptr, ptr, ptr, ptr, %struct.strmap, %struct.strmap, %struct.repo_path_cache, ptr, ptr, ptr, ptr, %struct.repo_settings, ptr, ptr, ptr, ptr, ptr, ptr, i32, i32, i32, ptr, ptr, i32, i32, i8 }
%struct.strmap = type { %struct.hashmap, ptr, i8 }
%struct.repo_path_cache = type { ptr, ptr, ptr, ptr, ptr, ptr, ptr }
%struct.repo_settings = type { i32, i32, i32, i32, i32, i32, i32, i32, i32, i32, i32, i32, ptr, i32, i32, i32, i32, i32, i32, i32, i64, i64, i64 }
%struct.diff_options = type { ptr, ptr, i32, i32, ptr, i32, ptr, i64, i64, ptr, ptr, ptr, ptr, %struct.diff_flags, i32, i32, i32, i32, i32, i32, i32, i32, i32, i32, i32, i32, i32, i32, i32, i32, i32, i32, i32, i32, i32, i32, ptr, i32, ptr, i32, i32, ptr, i64, i64, i32, i32, i32, i32, ptr, i32, i32, ptr, i32, i32, ptr, ptr, i32, [3 x i8], %struct.pathspec, ptr, ptr, ptr, ptr, ptr, ptr, ptr, ptr, i32, ptr, i32, i32, ptr, ptr, i32 }
%struct.diff_flags = type { i32, i32, i32, i32, i32, i32, i32, i32, i32, i32, i32, i32, i32, i32, i32, i32, i32, i32, i32, i32, i32, i32, i32, i32, i32, i32, i32, i32, i32, i32, i32, i32, i32, i32, i32 }
%struct.pathspec = type { i32, i8, i32, i32, ptr }
%struct.update_callback_data = type { ptr, i32, i32, i32 }
%struct.rev_info = type { ptr, %struct.object_array, ptr, %struct.object_array, %struct.rev_cmdline_info, %struct.list_objects_filter_options, %struct.ref_exclusions, ptr, ptr, ptr, %struct.pathspec, i32, i32, i32, i32, i64, i32, i32, %struct.date_mode, i32, i32, i32, i32, ptr, i32, i32, ptr, ptr, i32, ptr, ptr, %struct.ident_split, ptr, i32, ptr, ptr, ptr, i32, i32, i32, ptr, %struct.grep_opt, ptr, i32, i32, i64, i64, i64, i32, i32, ptr, ptr, ptr, %struct.diff_options, %struct.diff_options, ptr, %struct.decoration, %struct.decoration, %struct.decoration, %struct.display_notes_opt, ptr, ptr, ptr, ptr, ptr, i32, ptr, i32, i32, i32, %struct.decoration, ptr, ptr, ptr, ptr, ptr, ptr, ptr, i32, ptr, i32, ptr, %struct.oidset }
%struct.object_array = type { i32, i32, ptr }
%struct.rev_cmdline_info = type { i32, i32, ptr }
%struct.list_objects_filter_options = type { %struct.strbuf, i32, i8, ptr, i64, i64, i32, i64, i64, ptr }
%struct.ref_exclusions = type { %struct.string_list, %struct.strvec, i8 }
%struct.string_list = type { ptr, i64, i64, i8, ptr }
%struct.strvec = type { ptr, i64, i64 }
%struct.date_mode = type { i32, i32, ptr }
%struct.ident_split = type { ptr, ptr, ptr, ptr, ptr, ptr, ptr, ptr }
%struct.grep_opt = type { ptr, ptr, ptr, ptr, ptr, ptr, i32, i32, i32, i32, i32, i32, i32, i32, i32, i32, i32, i32, i32, i32, i32, i32, i32, i32, i32, i32, i32, i32, i32, i32, i32, i32, [9 x [75 x i8]], i32, i32, i32, i32, i32, i32, i32, ptr, ptr, ptr }
%struct.display_notes_opt = type { i32, %struct.string_list }
%struct.decoration = type { ptr, i32, i32, ptr }
%struct.oidset = type { %struct.kh_oid_set }
%struct.kh_oid_set = type { i32, i32, i32, i32, ptr, ptr, ptr }

; Function Attrs: nounwind uwtable
define dso_local i32 @add_files_to_cache(ptr noundef %0, ptr noundef %1, ptr noundef %2, ptr noundef %3, i32 noundef %4, i32 noundef %5) #0 {
  %7 = alloca ptr, align 8
  %8 = alloca ptr, align 8
  %9 = alloca ptr, align 8
  %10 = alloca ptr, align 8
  %11 = alloca i32, align 4
  %12 = alloca i32, align 4
  %13 = alloca %struct.update_callback_data, align 8
  %14 = alloca %struct.rev_info, align 8
  store ptr %0, ptr %7, align 8, !tbaa !48
  store ptr %1, ptr %8, align 8, !tbaa !11
  store ptr %2, ptr %9, align 8, !tbaa !86
  store ptr %3, ptr %10, align 8, !tbaa !11
  store i32 %4, ptr %11, align 4, !tbaa !9
  store i32 %5, ptr %12, align 4, !tbaa !9
  call void @llvm.lifetime.start.p0(i64 24, ptr %13) #12
  call void @llvm.lifetime.start.p0(i64 3008, ptr %14) #12
  call void @llvm.memset.p0.i64(ptr align 8 %13, i8 0, i64 24, i1 false)
  %15 = load ptr, ptr %7, align 8, !tbaa !48
  %16 = getelementptr inbounds nuw %struct.repository, ptr %15, i32 0, i32 15
  %17 = load ptr, ptr %16, align 8, !tbaa !88
  %18 = getelementptr inbounds nuw %struct.update_callback_data, ptr %13, i32 0, i32 0
  store ptr %17, ptr %18, align 8, !tbaa !215
  %19 = load i32, ptr %11, align 4, !tbaa !9
  %20 = getelementptr inbounds nuw %struct.update_callback_data, ptr %13, i32 0, i32 1
  store i32 %19, ptr %20, align 8, !tbaa !217
  %21 = load i32, ptr %12, align 4, !tbaa !9
  %22 = getelementptr inbounds nuw %struct.update_callback_data, ptr %13, i32 0, i32 2
  store i32 %21, ptr %22, align 4, !tbaa !218
  %23 = load ptr, ptr %7, align 8, !tbaa !48
  %24 = load ptr, ptr %8, align 8, !tbaa !11
  call void @repo_init_revisions(ptr noundef %23, ptr noundef %14, ptr noundef %24)
  %25 = call i32 @setup_revisions(i32 noundef 0, ptr noundef null, ptr noundef %14, ptr noundef null)
  %26 = load ptr, ptr %9, align 8, !tbaa !86
  %27 = icmp ne ptr %26, null
  br i1 %27, label %28, label %33

28:                                               ; preds = %6
  %29 = getelementptr inbounds nuw %struct.rev_info, ptr %14, i32 0, i32 10
  %30 = load ptr, ptr %9, align 8, !tbaa !86
  call void @copy_pathspec(ptr noundef %29, ptr noundef %30)
  %31 = load ptr, ptr %10, align 8, !tbaa !11
  %32 = getelementptr inbounds nuw %struct.rev_info, ptr %14, i32 0, i32 9
  store ptr %31, ptr %32, align 8, !tbaa !219
  br label %33

33:                                               ; preds = %28, %6
  %34 = getelementptr inbounds nuw %struct.rev_info, ptr %14, i32 0, i32 53
  %35 = getelementptr inbounds nuw %struct.diff_options, ptr %34, i32 0, i32 24
  store i32 4096, ptr %35, align 4, !tbaa !252
  %36 = getelementptr inbounds nuw %struct.rev_info, ptr %14, i32 0, i32 53
  %37 = getelementptr inbounds nuw %struct.diff_options, ptr %36, i32 0, i32 63
  store ptr @update_callback, ptr %37, align 8, !tbaa !253
  %38 = getelementptr inbounds nuw %struct.rev_info, ptr %14, i32 0, i32 53
  %39 = getelementptr inbounds nuw %struct.diff_options, ptr %38, i32 0, i32 64
  store ptr %13, ptr %39, align 8, !tbaa !254
  %40 = getelementptr inbounds nuw %struct.rev_info, ptr %14, i32 0, i32 53
  %41 = getelementptr inbounds nuw %struct.diff_options, ptr %40, i32 0, i32 13
  %42 = getelementptr inbounds nuw %struct.diff_flags, ptr %41, i32 0, i32 27
  store i32 1, ptr %42, align 4, !tbaa !255
  %43 = getelementptr inbounds nuw %struct.rev_info, ptr %14, i32 0, i32 44
  store i32 0, ptr %43, align 4, !tbaa !256
  call void @begin_odb_transaction()
  call void @run_diff_files(ptr noundef %14, i32 noundef 2)
  call void @end_odb_transaction()
  call void @release_revisions(ptr noundef %14)
  %44 = getelementptr inbounds nuw %struct.update_callback_data, ptr %13, i32 0, i32 3
  %45 = load i32, ptr %44, align 8, !tbaa !257
  %46 = icmp ne i32 %45, 0
  %47 = xor i1 %46, true
  %48 = xor i1 %47, true
  %49 = zext i1 %48 to i32
  call void @llvm.lifetime.end.p0(i64 3008, ptr %14) #12
  call void @llvm.lifetime.end.p0(i64 24, ptr %13) #12
  ret i32 %49
}