; Function Attrs: nounwind uwtable
define dso_local range(i32 0, 2) i32 @add_files_to_cache(ptr noundef %0, ptr noundef %1, ptr noundef %2, ptr noundef %3, i32 noundef %4, i32 noundef %5) local_unnamed_addr #0 {
  %7 = alloca %struct.update_callback_data, align 8
  %8 = alloca %struct.rev_info, align 8
  call void @llvm.lifetime.start.p0(i64 24, ptr nonnull %7) #30
  call void @llvm.lifetime.start.p0(i64 3008, ptr nonnull %8) #30
  %9 = getelementptr inbounds nuw i8, ptr %7, i64 16
  store i64 0, ptr %9, align 8
  %10 = getelementptr inbounds nuw i8, ptr %0, i64 384
  %11 = load ptr, ptr %10, align 8, !tbaa !82
  store ptr %11, ptr %7, align 8, !tbaa !182
  %12 = getelementptr inbounds nuw i8, ptr %7, i64 8
  store i32 %4, ptr %12, align 8, !tbaa !184
  %13 = getelementptr inbounds nuw i8, ptr %7, i64 12
  store i32 %5, ptr %13, align 4, !tbaa !185
  call void @repo_init_revisions(ptr noundef %0, ptr noundef nonnull %8, ptr noundef %1) #30
  %14 = call i32 @setup_revisions(i32 noundef 0, ptr noundef null, ptr noundef nonnull %8, ptr noundef null) #30
  %.not = icmp eq ptr %2, null
  br i1 %.not, label %18, label %15

15:                                               ; preds = %6
  %16 = getelementptr inbounds nuw i8, ptr %8, i64 248
  call void @copy_pathspec(ptr noundef nonnull %16, ptr noundef nonnull %2) #30
  %17 = getelementptr inbounds nuw i8, ptr %8, i64 240
  store ptr %3, ptr %17, align 8, !tbaa !186
  br label %18

18:                                               ; preds = %15, %6
  %19 = getelementptr inbounds nuw i8, ptr %8, i64 1748
  store i32 4096, ptr %19, align 4, !tbaa !220
  %20 = getelementptr inbounds nuw i8, ptr %8, i64 1984
  store ptr @update_callback, ptr %20, align 8, !tbaa !221
  %21 = getelementptr inbounds nuw i8, ptr %8, i64 1992
  store ptr %7, ptr %21, align 8, !tbaa !222
  %22 = getelementptr inbounds nuw i8, ptr %8, i64 1676
  store i32 1, ptr %22, align 4, !tbaa !223
  %23 = getelementptr inbounds nuw i8, ptr %8, i64 1412
  store i32 0, ptr %23, align 4, !tbaa !224
  call void @begin_odb_transaction() #30
  call void @run_diff_files(ptr noundef nonnull %8, i32 noundef 2) #30
  call void @end_odb_transaction() #30
  call void @release_revisions(ptr noundef nonnull %8) #30
  %24 = getelementptr inbounds nuw i8, ptr %7, i64 16
  %25 = load i32, ptr %24, align 8, !tbaa !225
  %26 = icmp ne i32 %25, 0
  %27 = zext i1 %26 to i32
  call void @llvm.lifetime.end.p0(i64 3008, ptr nonnull %8) #30
  call void @llvm.lifetime.end.p0(i64 24, ptr nonnull %7) #30
  ret i32 %27
}